target datalayout = "e-m:e-p270:32:32-p271:32:32-p272:64:64-i64:64-i128:128-f80:128-n8:16:32:64-S128"
target triple = "x86_64-pc-linux-gnu"

%struct._packet_info = type { ptr, ptr, i32, i32, %struct.nstime_t, %struct.nstime_t, %struct.nstime_t, i32, ptr, ptr, ptr, ptr, %struct._address, %struct._address, %struct._address, %struct._address, %struct._address, %struct._address, i32, ptr, i32, %struct.anon, i32, i32, i32, i32, ptr, i32, ptr, ptr, i16, i16, i32, i32, i16, i32, i32, ptr, ptr, ptr, i8, i8, i16, i16, i16, i32, i16, i16, ptr, ptr, ptr, ptr, ptr, i32 }
%struct.nstime_t = type { i64, i32 }
%struct._address = type { i32, i32, ptr, ptr }
%struct.anon = type { i8, [3 x i8] }

@hf_nfapi_pdu = internal global i32 0, align 4
@hf_nfapi_number_of_cqi = internal global i32 0, align 4
@ett_nfapi_cqi_indication_pdu_list = internal global i32 0, align 4
@.str.1839 = private unnamed_addr constant [3 x i8] c"%s\00", align 1
@.str.1840 = private unnamed_addr constant [5 x i8] c"[%d]\00", align 1
@.str.2184 = private unnamed_addr constant [13 x i8] c"CQI PDU List\00", align 1

; Function Attrs: nounwind uwtable
define internal void @dissect_array_value(ptr noundef %0, ptr noundef %1, ptr noundef %2, i32 noundef %3, i32 noundef %4, ptr noundef %5) #0 {
  %7 = alloca ptr, align 8
  %8 = alloca ptr, align 8
  %9 = alloca ptr, align 8
  %10 = alloca i32, align 4
  %11 = alloca i32, align 4
  %12 = alloca ptr, align 8
  %13 = alloca i16, align 2
  store ptr %0, ptr %7, align 8
  store ptr %1, ptr %8, align 8
  store ptr %2, ptr %9, align 8
  store i32 %3, ptr %10, align 4
  store i32 %4, ptr %11, align 4
  store ptr %5, ptr %12, align 8
  %14 = load i32, ptr %11, align 4
  %15 = icmp ugt i32 %14, 0
  br i1 %15, label %16, label %41

16:                                               ; preds = %6
  %17 = load ptr, ptr %7, align 8
  %18 = load i32, ptr %10, align 4
  %19 = load ptr, ptr %9, align 8
  %20 = call ptr (ptr, i32, i32, ptr, ...) @ptvcursor_add_text_with_subtree(ptr noundef %17, i32 noundef -1, i32 noundef %18, ptr noundef @.str.1839, ptr noundef %19)
  store i16 0, ptr %13, align 2
  br label %21

21:                                               ; preds = %36, %16
  %22 = load i16, ptr %13, align 2
  %23 = zext i16 %22 to i32
  %24 = load i32, ptr %11, align 4
  %25 = icmp ult i32 %23, %24
  br i1 %25, label %26, label %39

26:                                               ; preds = %21
  %27 = load ptr, ptr %7, align 8
  %28 = load i32, ptr %10, align 4
  %29 = load i16, ptr %13, align 2
  %30 = zext i16 %29 to i32
  %31 = call ptr (ptr, i32, i32, ptr, ...) @ptvcursor_add_text_with_subtree(ptr noundef %27, i32 noundef -1, i32 noundef %28, ptr noundef @.str.1840, i32 noundef %30)
  %32 = load ptr, ptr %12, align 8
  %33 = load ptr, ptr %7, align 8
  %34 = load ptr, ptr %8, align 8
  call void %32(ptr noundef %33, ptr noundef %34)
  %35 = load ptr, ptr %7, align 8
  call void @ptvcursor_pop_subtree(ptr noundef %35)
  br label %36

36:                                               ; preds = %26
  %37 = load i16, ptr %13, align 2
  %38 = add i16 %37, 1
  store i16 %38, ptr %13, align 2
  br label %21, !llvm.loop !4

39:                                               ; preds = %21
  %40 = load ptr, ptr %7, align 8
  call void @ptvcursor_pop_subtree(ptr noundef %40)
  br label %41

41:                                               ; preds = %39, %6
  ret void
}

; Function Attrs: nounwind uwtable
define internal void @dissect_rx_cqi_indication_body_value(ptr noundef %0, ptr noundef %1) #0 {
  %3 = alloca ptr, align 8
  %4 = alloca ptr, align 8
  %5 = alloca i32, align 4
  %6 = alloca i32, align 4
  %7 = alloca ptr, align 8
  %8 = alloca ptr, align 8
  %9 = alloca i32, align 4
  %10 = alloca i32, align 4
  %11 = alloca i32, align 4
  %12 = alloca i16, align 2
  %13 = alloca i16, align 2
  store ptr %0, ptr %3, align 8
  store ptr %1, ptr %4, align 8
  store ptr null, ptr %7, align 8
  %14 = load ptr, ptr %3, align 8
  %15 = load i32, ptr @hf_nfapi_number_of_cqi, align 4
  %16 = call ptr @ptvcursor_add_ret_uint(ptr noundef %14, i32 noundef %15, i32 noundef 2, i32 noundef 0, ptr noundef %6)
  %17 = load ptr, ptr %3, align 8
  %18 = call ptr @ptvcursor_tvbuff(ptr noundef %17)
  store ptr %18, ptr %8, align 8
  %19 = load ptr, ptr %3, align 8
  %20 = call i32 @ptvcursor_current_offset(ptr noundef %19)
  store i32 %20, ptr %9, align 4
  %21 = load i32, ptr %6, align 4
  %22 = icmp ugt i32 %21, 0
  br i1 %22, label %23, label %31

23:                                               ; preds = %2
  %24 = load ptr, ptr %4, align 8
  %25 = getelementptr inbounds %struct._packet_info, ptr %24, i32 0, i32 50
  %26 = load ptr, ptr %25, align 8
  %27 = load i32, ptr %6, align 4
  %28 = mul i32 %27, 2
  %29 = zext i32 %28 to i64
  %30 = call noalias ptr @wmem_alloc0(ptr noundef %26, i64 noundef %29)
  store ptr %30, ptr %7, align 8
  br label %31

31:                                               ; preds = %23, %2
  store i32 0, ptr %5, align 4
  br label %32

32:                                               ; preds = %91, %31
  %33 = load i32, ptr %5, align 4
  %34 = load i32, ptr %6, align 4
  %35 = icmp ult i32 %33, %34
  br i1 %35, label %36, label %94

36:                                               ; preds = %32
  %37 = load ptr, ptr %8, align 8
  %38 = load i32, ptr %9, align 4
  %39 = call zeroext i16 @tvb_get_ntohs(ptr noundef %37, i32 noundef %38)
  %40 = zext i16 %39 to i32
  store i32 %40, ptr %10, align 4
  %41 = load i32, ptr %9, align 4
  %42 = add i32 %41, 2
  store i32 %42, ptr %9, align 4
  %43 = load i32, ptr %9, align 4
  %44 = load i32, ptr %10, align 4
  %45 = add i32 %43, %44
  store i32 %45, ptr %11, align 4
  br label %46

46:                                               ; preds = %85, %36
  %47 = load i32, ptr %9, align 4
  %48 = load i32, ptr %11, align 4
  %49 = icmp ult i32 %47, %48
  br i1 %49, label %50, label %90

50:                                               ; preds = %46
  %51 = load ptr, ptr %8, align 8
  %52 = load i32, ptr %9, align 4
  %53 = call zeroext i16 @tvb_get_ntohs(ptr noundef %51, i32 noundef %52)
  store i16 %53, ptr %12, align 2
  %54 = load i32, ptr %9, align 4
  %55 = add i32 %54, 2
  store i32 %55, ptr %9, align 4
  %56 = load ptr, ptr %8, align 8
  %57 = load i32, ptr %9, align 4
  %58 = call zeroext i16 @tvb_get_ntohs(ptr noundef %56, i32 noundef %57)
  store i16 %58, ptr %13, align 2
  %59 = load i32, ptr %9, align 4
  %60 = add i32 %59, 2
  store i32 %60, ptr %9, align 4
  %61 = load i16, ptr %12, align 2
  %62 = zext i16 %61 to i32
  %63 = icmp eq i32 %62, 8239
  br i1 %63, label %64, label %72

64:                                               ; preds = %50
  %65 = load ptr, ptr %8, align 8
  %66 = load i32, ptr %9, align 4
  %67 = call zeroext i16 @tvb_get_ntohs(ptr noundef %65, i32 noundef %66)
  %68 = load ptr, ptr %7, align 8
  %69 = load i32, ptr %5, align 4
  %70 = zext i32 %69 to i64
  %71 = getelementptr i16, ptr %68, i64 %70
  store i16 %67, ptr %71, align 2
  br label %85

72:                                               ; preds = %50
  %73 = load i16, ptr %12, align 2
  %74 = zext i16 %73 to i32
  %75 = icmp eq i32 %74, 8240
  br i1 %75, label %76, label %84

76:                                               ; preds = %72
  %77 = load ptr, ptr %8, align 8
  %78 = load i32, ptr %9, align 4
  %79 = call zeroext i16 @tvb_get_ntohs(ptr noundef %77, i32 noundef %78)
  %80 = load ptr, ptr %7, align 8
  %81 = load i32, ptr %5, align 4
  %82 = zext i32 %81 to i64
  %83 = getelementptr i16, ptr %80, i64 %82
  store i16 %79, ptr %83, align 2
  br label %84

84:                                               ; preds = %76, %72
  br label %85

85:                                               ; preds = %84, %64
  %86 = load i16, ptr %13, align 2
  %87 = zext i16 %86 to i32
  %88 = load i32, ptr %9, align 4
  %89 = add i32 %88, %87
  store i32 %89, ptr %9, align 4
  br label %46, !llvm.loop !9

90:                                               ; preds = %46
  br label %91

91:                                               ; preds = %90
  %92 = load i32, ptr %5, align 4
  %93 = add i32 %92, 1
  store i32 %93, ptr %5, align 4
  br label %32, !llvm.loop !10

94:                                               ; preds = %32
  %95 = load ptr, ptr %3, align 8
  %96 = load ptr, ptr %4, align 8
  %97 = load i32, ptr @ett_nfapi_cqi_indication_pdu_list, align 4
  %98 = load i32, ptr %6, align 4
  call void @dissect_array_value(ptr noundef %95, ptr noundef %96, ptr noundef @.str.2184, i32 noundef %97, i32 noundef %98, ptr noundef @dissect_cqi_indication_pdu)
  store i32 0, ptr %5, align 4
  br label %99

99:                                               ; preds = %113, %94
  %100 = load i32, ptr %5, align 4
  %101 = load i32, ptr %6, align 4
  %102 = icmp ult i32 %100, %101
  br i1 %102, label %103, label %116

103:                                              ; preds = %99
  %104 = load ptr, ptr %3, align 8
  %105 = load i32, ptr @hf_nfapi_pdu, align 4
  %106 = load ptr, ptr %7, align 8
  %107 = load i32, ptr %5, align 4
  %108 = zext i32 %107 to i64
  %109 = getelementptr i16, ptr %106, i64 %108
  %110 = load i16, ptr %109, align 2
  %111 = zext i16 %110 to i32
  %112 = call ptr @ptvcursor_add(ptr noundef %104, i32 noundef %105, i32 noundef %111, i32 noundef 0)
  br label %113

113:                                              ; preds = %103
  %114 = load i32, ptr %5, align 4
  %115 = add i32 %114, 1
  store i32 %115, ptr %5, align 4
  br label %99, !llvm.loop !11

116:                                              ; preds = %99
  ret void
}