; Function Attrs: nounwind uwtable
define internal void @dissect_rx_cqi_indication_body_value(ptr noundef %0, ptr noundef %1) #0 {
  %3 = alloca i32, align 4
  %4 = alloca i32, align 4
  %5 = load i32, ptr @hf_nfapi_number_of_cqi, align 4
  %6 = call ptr @ptvcursor_add_ret_uint(ptr noundef %0, i32 noundef %5, i32 noundef 2, i32 noundef 0, ptr noundef nonnull %4) #7
  %7 = call ptr @ptvcursor_tvbuff(ptr noundef %0) #7
  %8 = call i32 @ptvcursor_current_offset(ptr noundef %0) #7
  %9 = load i32, ptr %4, align 4
  %.not = icmp eq i32 %9, 0
  br i1 %.not, label %._crit_edge52, label %10

10:                                               ; preds = %2
  %11 = getelementptr inbounds nuw i8, ptr %1, i64 408
  %12 = load ptr, ptr %11, align 8
  %13 = shl i32 %9, 1
  %14 = zext i32 %13 to i64
  %15 = call noalias ptr @wmem_alloc0(ptr noundef %12, i64 noundef %14) #7
  %.pre = load i32, ptr %4, align 4
  %16 = icmp eq i32 %.pre, 0
  br i1 %16, label %._crit_edge52, label %.lr.ph47

.lr.ph47:                                         ; preds = %10, %._crit_edge
  %indvars.iv = phi i64 [ %indvars.iv.next, %._crit_edge ], [ 0, %10 ]
  %.03844 = phi i32 [ %.139.lcssa, %._crit_edge ], [ %8, %10 ]
  %17 = call zeroext i16 @tvb_get_ntohs(ptr noundef %7, i32 noundef %.03844) #7
  %18 = zext i16 %17 to i32
  %19 = add i32 %.03844, 2
  %20 = add i32 %19, %18
  %21 = icmp ult i32 %19, %20
  br i1 %21, label %.lr.ph, label %._crit_edge

.lr.ph:                                           ; preds = %.lr.ph47
  %22 = getelementptr i16, ptr %15, i64 %indvars.iv
  br label %23

23:                                               ; preds = %.lr.ph, %29
  %.13943 = phi i32 [ %19, %.lr.ph ], [ %31, %29 ]
  %24 = call zeroext i16 @tvb_get_ntohs(ptr noundef %7, i32 noundef %.13943) #7
  %25 = add i32 %.13943, 2
  %26 = call zeroext i16 @tvb_get_ntohs(ptr noundef %7, i32 noundef %25) #7
  %27 = add i32 %.13943, 4
  %.off = add i16 %24, -8239
  %switch = icmp ult i16 %.off, 2
  br i1 %switch, label %.sink.split, label %29

.sink.split:                                      ; preds = %23
  %28 = call zeroext i16 @tvb_get_ntohs(ptr noundef %7, i32 noundef %27) #7
  store i16 %28, ptr %22, align 2
  br label %29

29:                                               ; preds = %23, %.sink.split
  %30 = zext i16 %26 to i32
  %31 = add i32 %27, %30
  %32 = icmp ult i32 %31, %20
  br i1 %32, label %23, label %._crit_edge, !llvm.loop !9

._crit_edge:                                      ; preds = %29, %.lr.ph47
  %.139.lcssa = phi i32 [ %19, %.lr.ph47 ], [ %31, %29 ]
  %indvars.iv.next = add nuw nsw i64 %indvars.iv, 1
  %33 = load i32, ptr %4, align 4
  %34 = zext i32 %33 to i64
  %35 = icmp samesign ult i64 %indvars.iv.next, %34
  br i1 %35, label %.lr.ph47, label %._crit_edge48, !llvm.loop !10

._crit_edge48:                                    ; preds = %._crit_edge
  %36 = load i32, ptr @ett_nfapi_cqi_indication_pdu_list, align 4
  %.not.i = icmp eq i32 %33, 0
  br i1 %.not.i, label %._crit_edge52, label %37

37:                                               ; preds = %._crit_edge48
  %38 = call ptr (ptr, i32, i32, ptr, ...) @ptvcursor_add_text_with_subtree(ptr noundef %0, i32 noundef -1, i32 noundef %36, ptr noundef nonnull @.str.1839, ptr noundef nonnull @.str.2184) #7
  br label %39

39:                                               ; preds = %39, %37
  %40 = phi i32 [ 0, %37 ], [ %49, %39 ]
  %.016.i = phi i16 [ 0, %37 ], [ %48, %39 ]
  %41 = call ptr (ptr, i32, i32, ptr, ...) @ptvcursor_add_text_with_subtree(ptr noundef %0, i32 noundef -1, i32 noundef %36, ptr noundef nonnull @.str.1840, i32 noundef %40) #7
  call void @llvm.lifetime.start.p0(i64 4, ptr nonnull %3)
  %42 = load i32, ptr @hf_nfapi_instance_length, align 4
  %43 = call ptr @ptvcursor_add_ret_uint(ptr noundef %0, i32 noundef %42, i32 noundef 2, i32 noundef 0, ptr noundef nonnull %3) #7
  %44 = call i32 @ptvcursor_current_offset(ptr noundef %0) #7
  %45 = load i32, ptr %3, align 4
  %46 = add i32 %44, -2
  %47 = add i32 %46, %45
  call fastcc void @dissect_tlv_list(ptr noundef %0, ptr noundef %1, i32 noundef %47)
  call void @llvm.lifetime.end.p0(i64 4, ptr nonnull %3)
  call void @ptvcursor_pop_subtree(ptr noundef %0) #7
  %48 = add i16 %.016.i, 1
  %49 = zext i16 %48 to i32
  %50 = icmp ugt i32 %33, %49
  br i1 %50, label %39, label %dissect_array_value.exit, !llvm.loop !4

dissect_array_value.exit:                         ; preds = %39
  call void @ptvcursor_pop_subtree(ptr noundef %0) #7
  %.pre61 = load i32, ptr %4, align 4
  %51 = icmp eq i32 %.pre61, 0
  br i1 %51, label %._crit_edge52, label %.lr.ph51

.lr.ph51:                                         ; preds = %dissect_array_value.exit, %.lr.ph51
  %indvars.iv58 = phi i64 [ %indvars.iv.next59, %.lr.ph51 ], [ 0, %dissect_array_value.exit ]
  %52 = load i32, ptr @hf_nfapi_pdu, align 4
  %53 = getelementptr i16, ptr %15, i64 %indvars.iv58
  %54 = load i16, ptr %53, align 2
  %55 = zext i16 %54 to i32
  %56 = call ptr @ptvcursor_add(ptr noundef %0, i32 noundef %52, i32 noundef %55, i32 noundef 0) #7
  %indvars.iv.next59 = add nuw nsw i64 %indvars.iv58, 1
  %57 = load i32, ptr %4, align 4
  %58 = zext i32 %57 to i64
  %59 = icmp samesign ult i64 %indvars.iv.next59, %58
  br i1 %59, label %.lr.ph51, label %._crit_edge52, !llvm.loop !11

._crit_edge52:                                    ; preds = %.lr.ph51, %2, %10, %._crit_edge48, %dissect_array_value.exit
  ret void
}